; Function Attrs: nounwind uwtable
define ptr @l_Lake_Manifest_saveEntries(ptr noundef %0, ptr noundef %1, ptr noundef %2) local_unnamed_addr #0 {
  %4 = getelementptr i8, ptr %1, i64 8
  %.val.i = load i64, ptr %4, align 8, !tbaa !12
  %5 = tail call ptr @l_Array_mapMUnsafe_map___at_Lake_Manifest_toJson___spec__2(i64 noundef %.val.i, i64 noundef 0, ptr noundef %1)
  tail call void @lean_inc_heartbeat() #6
  %6 = tail call noalias ptr @mi_malloc_small(i64 noundef 16) #6
  %7 = icmp eq ptr %6, null
  br i1 %7, label %8, label %l_Array_toJson___at_Lake_Manifest_toJson___spec__1.exit

8:                                                ; preds = %3
  tail call void @lean_internal_panic_out_of_memory() #7
  unreachable

l_Array_toJson___at_Lake_Manifest_toJson___spec__1.exit: ; preds = %3
  %9 = getelementptr inbounds nuw i8, ptr %6, i64 4
  store i32 1, ptr %6, align 4, !tbaa !4
  store i32 67174416, ptr %9, align 4
  %10 = getelementptr inbounds nuw i8, ptr %6, i64 8
  store ptr %5, ptr %10, align 8, !tbaa !9
  %11 = load ptr, ptr @l_Lake_Manifest_toJson___closed__7, align 8, !tbaa !9
  tail call void @lean_inc_heartbeat() #6
  %12 = tail call noalias ptr @mi_malloc_small(i64 noundef 24) #6
  %13 = icmp eq ptr %12, null
  br i1 %13, label %14, label %lean_alloc_ctor.exit

14:                                               ; preds = %l_Array_toJson___at_Lake_Manifest_toJson___spec__1.exit
  tail call void @lean_internal_panic_out_of_memory() #7
  unreachable

lean_alloc_ctor.exit:                             ; preds = %l_Array_toJson___at_Lake_Manifest_toJson___spec__1.exit
  %15 = getelementptr inbounds nuw i8, ptr %12, i64 4
  store i32 1, ptr %12, align 4, !tbaa !4
  store i32 131096, ptr %15, align 4
  %16 = getelementptr inbounds nuw i8, ptr %12, i64 8
  store ptr %11, ptr %16, align 8, !tbaa !9
  %17 = getelementptr inbounds nuw i8, ptr %12, i64 16
  store ptr %6, ptr %17, align 8, !tbaa !9
  tail call void @lean_inc_heartbeat() #6
  %18 = tail call noalias ptr @mi_malloc_small(i64 noundef 24) #6
  %19 = icmp eq ptr %18, null
  br i1 %19, label %20, label %lean_alloc_ctor.exit22

20:                                               ; preds = %lean_alloc_ctor.exit
  tail call void @lean_internal_panic_out_of_memory() #7
  unreachable

lean_alloc_ctor.exit22:                           ; preds = %lean_alloc_ctor.exit
  %21 = getelementptr inbounds nuw i8, ptr %18, i64 4
  store i32 1, ptr %18, align 4, !tbaa !4
  store i32 16908312, ptr %21, align 4
  %22 = getelementptr inbounds nuw i8, ptr %18, i64 8
  store ptr %12, ptr %22, align 8, !tbaa !9
  %23 = getelementptr inbounds nuw i8, ptr %18, i64 16
  store ptr inttoptr (i64 1 to ptr), ptr %23, align 8, !tbaa !9
  %24 = load ptr, ptr @l_Lake_Manifest_saveEntries___closed__1, align 8, !tbaa !9
  tail call void @lean_inc_heartbeat() #6
  %25 = tail call noalias ptr @mi_malloc_small(i64 noundef 24) #6
  %26 = icmp eq ptr %25, null
  br i1 %26, label %27, label %lean_alloc_ctor.exit23

27:                                               ; preds = %lean_alloc_ctor.exit22
  tail call void @lean_internal_panic_out_of_memory() #7
  unreachable

lean_alloc_ctor.exit23:                           ; preds = %lean_alloc_ctor.exit22
  %28 = getelementptr inbounds nuw i8, ptr %25, i64 4
  store i32 1, ptr %25, align 4, !tbaa !4
  store i32 16908312, ptr %28, align 4
  %29 = getelementptr inbounds nuw i8, ptr %25, i64 8
  store ptr %24, ptr %29, align 8, !tbaa !9
  %30 = getelementptr inbounds nuw i8, ptr %25, i64 16
  store ptr %18, ptr %30, align 8, !tbaa !9
  %31 = tail call ptr @l_Lean_Json_mkObj(ptr noundef nonnull %25) #6
  %32 = tail call ptr @l_Lean_Json_pretty(ptr noundef %31, ptr noundef nonnull inttoptr (i64 161 to ptr)) #6
  %33 = tail call ptr @lean_string_push(ptr noundef %32, i32 noundef 10) #6
  %34 = tail call ptr @l_IO_FS_writeFile(ptr noundef %0, ptr noundef %33, ptr noundef %2) #6
  %35 = ptrtoint ptr %33 to i64
  %36 = and i64 %35, 1
  %.not = icmp eq i64 %36, 0
  br i1 %.not, label %37, label %lean_dec.exit

37:                                               ; preds = %lean_alloc_ctor.exit23
  %38 = load i32, ptr %33, align 4, !tbaa !4
  %39 = icmp sgt i32 %38, 1
  br i1 %39, label %40, label %42, !prof !11

40:                                               ; preds = %37
  %41 = add nsw i32 %38, -1
  store i32 %41, ptr %33, align 4, !tbaa !4
  br label %lean_dec.exit

42:                                               ; preds = %37
  %.not.i = icmp eq i32 %38, 0
  br i1 %.not.i, label %lean_dec.exit, label %43

43:                                               ; preds = %42
  tail call void @lean_dec_ref_cold(ptr noundef nonnull %33) #6
  br label %lean_dec.exit

lean_dec.exit:                                    ; preds = %43, %42, %40, %lean_alloc_ctor.exit23
  ret ptr %34
}